; Function Attrs: mustprogress uwtable
define dso_local void @_ZN4absl12log_internal22MakeCheckOpValueStringERSoa(ptr noundef nonnull align 8 dereferenceable(8) %0, i8 noundef signext %1) local_unnamed_addr #2 {
  %3 = alloca i8, align 1
  %4 = add i8 %1, -32
  %or.cond = icmp ult i8 %4, 95
  br i1 %or.cond, label %5, label %18

5:                                                ; preds = %2
  %6 = tail call noundef nonnull align 8 dereferenceable(8) ptr @_ZSt16__ostream_insertIcSt11char_traitsIcEERSt13basic_ostreamIT_T0_ES6_PKS3_l(ptr noundef nonnull align 8 dereferenceable(8) %0, ptr noundef nonnull @.str.3, i64 noundef 1)
  call void @llvm.lifetime.start.p0(i64 1, ptr nonnull %3)
  store i8 %1, ptr %3, align 1, !tbaa !25
  %7 = load ptr, ptr %0, align 8, !tbaa !4
  %8 = getelementptr i8, ptr %7, i64 -24
  %9 = load i64, ptr %8, align 8
  %10 = getelementptr inbounds i8, ptr %0, i64 %9
  %11 = getelementptr inbounds nuw i8, ptr %10, i64 16
  %12 = load i64, ptr %11, align 8, !tbaa !37
  %.not.i.i = icmp eq i64 %12, 0
  br i1 %.not.i.i, label %15, label %13

13:                                               ; preds = %5
  %14 = call noundef nonnull align 8 dereferenceable(8) ptr @_ZSt16__ostream_insertIcSt11char_traitsIcEERSt13basic_ostreamIT_T0_ES6_PKS3_l(ptr noundef nonnull align 8 dereferenceable(8) %0, ptr noundef nonnull %3, i64 noundef 1)
  br label %_ZStlsISt11char_traitsIcEERSt13basic_ostreamIcT_ES5_a.exit

15:                                               ; preds = %5
  %16 = tail call noundef nonnull align 8 dereferenceable(8) ptr @_ZNSo3putEc(ptr noundef nonnull align 8 dereferenceable(8) %0, i8 noundef signext %1)
  br label %_ZStlsISt11char_traitsIcEERSt13basic_ostreamIcT_ES5_a.exit

_ZStlsISt11char_traitsIcEERSt13basic_ostreamIcT_ES5_a.exit: ; preds = %13, %15
  %.0.i.i = phi ptr [ %14, %13 ], [ %0, %15 ]
  call void @llvm.lifetime.end.p0(i64 1, ptr nonnull %3)
  %17 = call noundef nonnull align 8 dereferenceable(8) ptr @_ZSt16__ostream_insertIcSt11char_traitsIcEERSt13basic_ostreamIT_T0_ES6_PKS3_l(ptr noundef nonnull align 8 dereferenceable(8) %.0.i.i, ptr noundef nonnull @.str.3, i64 noundef 1)
  br label %22

18:                                               ; preds = %2
  %19 = sext i8 %1 to i32
  %20 = tail call noundef nonnull align 8 dereferenceable(8) ptr @_ZSt16__ostream_insertIcSt11char_traitsIcEERSt13basic_ostreamIT_T0_ES6_PKS3_l(ptr noundef nonnull align 8 dereferenceable(8) %0, ptr noundef nonnull @.str.5, i64 noundef 18)
  %21 = tail call noundef nonnull align 8 dereferenceable(8) ptr @_ZNSolsEi(ptr noundef nonnull align 8 dereferenceable(8) %0, i32 noundef %19)
  br label %22

22:                                               ; preds = %18, %_ZStlsISt11char_traitsIcEERSt13basic_ostreamIcT_ES5_a.exit
  ret void
}